(dp0
Vengine
p1
Vpdflatex
p2
sVsynctex
p3
I01
sVpackages
p4
c__builtin__
set
p5
((lp6
Vsiunitx
p7
aVtikz
p8
aVtitlesec
p9
aVgeometry
p10
aVsetspace
p11
aVpgfplotstable
p12
aVamsmath
p13
aValgorithm2e
p14
aVpgfplots
p15
aVimport
p16
aVcancel
p17
aVamsfonts
p18
aVamssymb
p19
aVgraphicx
p20
aVcircuitikz
p21
atp22
Rp23
sVfiles_with_guttermarks
p24
g5
((lp25
S'main.tex'
p26
atp27
Rp28
s.